ARM GAS  C:\Users\Nike\AppData\Local\Temp\ccYMNkLg.s 			page 1


   1              		.syntax unified
   2              		.cpu cortex-m3
   3              		.fpu softvfp
   4              		.eabi_attribute 20, 1
   5              		.eabi_attribute 21, 1
   6              		.eabi_attribute 23, 3
   7              		.eabi_attribute 24, 1
   8              		.eabi_attribute 25, 1
   9              		.eabi_attribute 26, 1
  10              		.eabi_attribute 30, 1
  11              		.eabi_attribute 34, 1
  12              		.eabi_attribute 18, 4
  13              		.thumb
  14              		.file	"main.c"
  15              		.text
  16              	.Ltext0:
  17              		.cfi_sections	.debug_frame
  18              		.section	.text.main,"ax",%progbits
  19              		.align	2
  20              		.global	main
  21              		.thumb
  22              		.thumb_func
  23              		.type	main, %function
  24              	main:
  25              	.LFB63:
  26              		.file 1 "main.c"
   1:main.c        **** /**
   2:main.c        **** * @mainpage ZumoBot Project
   3:main.c        **** * @brief    You can make your own ZumoBot with various sensors.
   4:main.c        **** * @details  <br><br>
   5:main.c        ****     <p>
   6:main.c        ****     <B>General</B><br>
   7:main.c        ****     You will use Pololu Zumo Shields for your robot project with CY8CKIT-059(PSoC 5LP) from Cypress
   8:main.c        ****     library has basic methods of various sensors and communications so that you can make what you w
   9:main.c        ****     <br><br>
  10:main.c        ****     </p>
  11:main.c        ****     
  12:main.c        ****     <p>
  13:main.c        ****     <B>Sensors</B><br>
  14:main.c        ****     &nbsp;Included: <br>
  15:main.c        ****         &nbsp;&nbsp;&nbsp;&nbsp;LSM303D: Accelerometer & Magnetometer<br>
  16:main.c        ****         &nbsp;&nbsp;&nbsp;&nbsp;L3GD20H: Gyroscope<br>
  17:main.c        ****         &nbsp;&nbsp;&nbsp;&nbsp;Reflectance sensor<br>
  18:main.c        ****         &nbsp;&nbsp;&nbsp;&nbsp;Motors
  19:main.c        ****     &nbsp;Wii nunchuck<br>
  20:main.c        ****     &nbsp;TSOP-2236: IR Receiver<br>
  21:main.c        ****     &nbsp;HC-SR04: Ultrasonic sensor<br>
  22:main.c        ****     &nbsp;APDS-9301: Ambient light sensor<br>
  23:main.c        ****     &nbsp;IR LED <br><br><br>
  24:main.c        ****     </p>
  25:main.c        ****     
  26:main.c        ****     <p>
  27:main.c        ****     <B>Communication</B><br>
  28:main.c        ****     I2C, UART, Serial<br>
  29:main.c        ****     </p>
  30:main.c        **** */
  31:main.c        **** 
ARM GAS  C:\Users\Nike\AppData\Local\Temp\ccYMNkLg.s 			page 2


  32:main.c        **** #include <project.h>
  33:main.c        **** #include <stdio.h>
  34:main.c        **** #include "Motor.h"
  35:main.c        **** #include "Ultra.h"
  36:main.c        **** #include "Nunchuk.h"
  37:main.c        **** #include "Reflectance.h"
  38:main.c        **** #include "I2C_made.h"
  39:main.c        **** #include "Gyro.h"
  40:main.c        **** #include "Accel_magnet.h"
  41:main.c        **** #include "IR.h"
  42:main.c        **** #include "Ambient.h"
  43:main.c        **** #include "Beep.h"
  44:main.c        **** 
  45:main.c        **** int rread(void);
  46:main.c        **** 
  47:main.c        **** /**
  48:main.c        ****  * @file    main.c
  49:main.c        ****  * @brief   
  50:main.c        ****  * @details  ** You should enable global interrupt for operating properly. **<br>&nbsp;&nbsp;&nbsp;
  51:main.c        **** */
  52:main.c        **** 
  53:main.c        **** 
  54:main.c        **** //battery level//
  55:main.c        **** int main()
  56:main.c        **** {
  27              		.loc 1 56 0
  28              		.cfi_startproc
  29              		@ args = 0, pretend = 0, frame = 8
  30              		@ frame_needed = 0, uses_anonymous_args = 0
  31 0000 00B5     		push	{lr}
  32              		.cfi_def_cfa_offset 4
  33              		.cfi_offset 14, -4
  34 0002 85B0     		sub	sp, sp, #20
  35              		.cfi_def_cfa_offset 24
  57:main.c        ****     struct sensors_ ref;
  58:main.c        ****     struct sensors_ dig;
  59:main.c        ****     CyGlobalIntEnable; 
  36              		.loc 1 59 0
  37              	@ 59 "main.c" 1
  38 0004 62B6     		CPSIE   i
  39              	@ 0 "" 2
  60:main.c        ****     UART_1_Start();
  40              		.loc 1 60 0
  41              		.thumb
  42 0006 FFF7FEFF 		bl	UART_1_Start
  43              	.LVL0:
  61:main.c        ****     ADC_Battery_Start(); 
  44              		.loc 1 61 0
  45 000a FFF7FEFF 		bl	ADC_Battery_Start
  46              	.LVL1:
  62:main.c        ****     sensor_isr_StartEx(sensor_isr_handler);
  47              		.loc 1 62 0
  48 000e 4148     		ldr	r0, .L16
  49 0010 FFF7FEFF 		bl	sensor_isr_StartEx
  50              	.LVL2:
  63:main.c        ****     
  64:main.c        ****     reflectance_start();
ARM GAS  C:\Users\Nike\AppData\Local\Temp\ccYMNkLg.s 			page 3


  51              		.loc 1 64 0
  52 0014 FFF7FEFF 		bl	reflectance_start
  53              	.LVL3:
  65:main.c        ****     IR_led_Write(1);
  54              		.loc 1 65 0
  55 0018 0120     		movs	r0, #1
  56 001a FFF7FEFF 		bl	IR_led_Write
  57              	.LVL4:
  66:main.c        ****     int16 adcresult =0;
  67:main.c        ****     //float volts = 0.0;
  68:main.c        ****     int k = 0;
  69:main.c        ****     float voltage = 0;
  70:main.c        **** 
  71:main.c        ****     printf("\nBoot\n");
  58              		.loc 1 71 0
  59 001e 3E48     		ldr	r0, .L16+4
  60 0020 FFF7FEFF 		bl	puts
  61              	.LVL5:
  72:main.c        ****     CyDelay(1000);
  62              		.loc 1 72 0
  63 0024 4FF47A70 		mov	r0, #1000
  64 0028 FFF7FEFF 		bl	CyDelay
  65              	.LVL6:
  73:main.c        **** 
  74:main.c        ****     //BatteryLed_Write(1); // Switch led on 
  75:main.c        ****     BatteryLed_Write(1); // Switch led off 
  66              		.loc 1 75 0
  67 002c 0120     		movs	r0, #1
  68 002e FFF7FEFF 		bl	BatteryLed_Write
  69              	.LVL7:
  76:main.c        ****     //uint8 button;
  77:main.c        ****     int button = SW1_Read(); // read SW1 on pSoC board
  70              		.loc 1 77 0
  71 0032 FFF7FEFF 		bl	SW1_Read
  72              	.LVL8:
  78:main.c        ****     
  79:main.c        ****     while(button == 1) {
  73              		.loc 1 79 0
  74 0036 08E0     		b	.L2
  75              	.L3:
  80:main.c        ****         printf("While loop\n");
  76              		.loc 1 80 0
  77 0038 3848     		ldr	r0, .L16+8
  78              	.LVL9:
  79 003a FFF7FEFF 		bl	puts
  80              	.LVL10:
  81:main.c        ****         CyDelay(1000);
  81              		.loc 1 81 0
  82 003e 4FF47A70 		mov	r0, #1000
  83 0042 FFF7FEFF 		bl	CyDelay
  84              	.LVL11:
  82:main.c        ****         button = SW1_Read();    
  85              		.loc 1 82 0
  86 0046 FFF7FEFF 		bl	SW1_Read
  87              	.LVL12:
  88              	.L2:
  79:main.c        ****         printf("While loop\n");
ARM GAS  C:\Users\Nike\AppData\Local\Temp\ccYMNkLg.s 			page 4


  89              		.loc 1 79 0
  90 004a 0128     		cmp	r0, #1
  91 004c F4D0     		beq	.L3
  83:main.c        ****     }
  84:main.c        **** 
  85:main.c        ****     for(;;)
  86:main.c        ****     {
  87:main.c        ****        printf("For loop\n");
  92              		.loc 1 87 0
  93 004e 3448     		ldr	r0, .L16+12
  94              	.LVL13:
  95 0050 FFF7FEFF 		bl	puts
  96              	.LVL14:
  88:main.c        ****        if(k==300){ 
  89:main.c        ****         printf("IF 1\n");
  90:main.c        ****         motor_stop();
  91:main.c        ****         k = 0;
  92:main.c        ****         ADC_Battery_StartConvert();
  93:main.c        ****         if(ADC_Battery_IsEndConversion(ADC_Battery_WAIT_FOR_RESULT)) {   // wait for get ADC conver
  94:main.c        ****             adcresult = ADC_Battery_GetResult16();
  95:main.c        ****             //volts = ADC_Battery_CountsTo_Volts(adcresult);                  // convert value to V
  96:main.c        ****             
  97:main.c        ****             voltage = (adcresult/4095.0*5.0)*1.5;
  98:main.c        ****             // If you want to print value
  99:main.c        ****             //printf("%d %f\r\n",adcresult, volts);
 100:main.c        ****             printf("%f\n", voltage);
 101:main.c        ****             while(voltage < 4){
 102:main.c        ****                 
 103:main.c        ****                 BatteryLed_Write(0);
 104:main.c        ****                 CyDelay(200);
 105:main.c        ****                 BatteryLed_Write(1);
 106:main.c        ****                 CyDelay(200);
 107:main.c        ****                 BatteryLed_Write(0);
 108:main.c        ****                 CyDelay(200);
 109:main.c        ****                 BatteryLed_Write(1);
 110:main.c        ****                 CyDelay(200);
 111:main.c        ****                 BatteryLed_Write(0);
 112:main.c        ****                 CyDelay(200);
 113:main.c        ****                 BatteryLed_Write(1);
 114:main.c        ****                 CyDelay(200);
 115:main.c        ****                 BatteryLed_Write(0);
 116:main.c        ****                 CyDelay(200);
 117:main.c        ****                 
 118:main.c        ****                 BatteryLed_Write(1);
 119:main.c        ****                 CyDelay(900);
 120:main.c        ****                 BatteryLed_Write(0);
 121:main.c        ****                 CyDelay(900);
 122:main.c        ****                 BatteryLed_Write(1);
 123:main.c        ****                 CyDelay(900);
 124:main.c        ****                 BatteryLed_Write(0);
 125:main.c        ****                 CyDelay(900);
 126:main.c        ****                 BatteryLed_Write(1);
 127:main.c        ****                 CyDelay(900);
 128:main.c        ****                 BatteryLed_Write(0);
 129:main.c        ****                 CyDelay(900);
 130:main.c        ****                 
 131:main.c        ****                 BatteryLed_Write(1);
ARM GAS  C:\Users\Nike\AppData\Local\Temp\ccYMNkLg.s 			page 5


 132:main.c        ****                 CyDelay(200);
 133:main.c        ****                 BatteryLed_Write(0);
 134:main.c        ****                 CyDelay(200);
 135:main.c        ****                 BatteryLed_Write(1);
 136:main.c        ****                 CyDelay(200);
 137:main.c        ****                 BatteryLed_Write(0);
 138:main.c        ****                 CyDelay(200);
 139:main.c        ****                 BatteryLed_Write(1);
 140:main.c        ****                 CyDelay(200);
 141:main.c        ****                 BatteryLed_Write(0);
 142:main.c        ****                 CyDelay(1500);
 143:main.c        ****                 //voltage = 5;
 144:main.c        ****                 adcresult = ADC_Battery_GetResult16();                // convert value to Volts
 145:main.c        ****                 voltage = (adcresult/4095.0*5.0)*1.5;
 146:main.c        ****             }
 147:main.c        ****             BatteryLed_Write(1);
 148:main.c        ****             
 149:main.c        ****         }
 150:main.c        ****         }
 151:main.c        ****         
 152:main.c        ****     
 153:main.c        ****         printf("Let's roll\n");
  97              		.loc 1 153 0
  98 0054 3348     		ldr	r0, .L16+16
  99 0056 FFF7FEFF 		bl	puts
 100              	.LVL15:
 154:main.c        ****         motor_start();
 101              		.loc 1 154 0
 102 005a FFF7FEFF 		bl	motor_start
 103              	.LVL16:
 104              	.L14:
 155:main.c        ****         
 156:main.c        ****         while(1) {
 157:main.c        **** //        reflectance_read(&ref);
 158:main.c        **** //        printf("%d %d %d %d \r\n", ref.l3, ref.l1, ref.r1, ref.r3);
 159:main.c        ****             reflectance_digital(&dig);
 105              		.loc 1 159 0
 106 005e 02A8     		add	r0, sp, #8
 107 0060 FFF7FEFF 		bl	reflectance_digital
 108              	.LVL17:
 160:main.c        ****             printf("%d %d %d %d \r\n", dig.l3,dig.l1,dig.r1,dig.r3);
 109              		.loc 1 160 0
 110 0064 BDF80810 		ldrh	r1, [sp, #8]
 111 0068 BDF80A20 		ldrh	r2, [sp, #10]
 112 006c BDF80C30 		ldrh	r3, [sp, #12]
 113 0070 BDF80E00 		ldrh	r0, [sp, #14]
 114 0074 0090     		str	r0, [sp]
 115 0076 2C48     		ldr	r0, .L16+20
 116 0078 FFF7FEFF 		bl	printf
 117              	.LVL18:
 161:main.c        ****             
 162:main.c        ****             
 163:main.c        ****             while(dig.l3 == 0) {
 118              		.loc 1 163 0
 119 007c 07E0     		b	.L4
 120              	.L5:
 164:main.c        ****                 motor_turn(1,200,250);
ARM GAS  C:\Users\Nike\AppData\Local\Temp\ccYMNkLg.s 			page 6


 121              		.loc 1 164 0
 122 007e 0120     		movs	r0, #1
 123 0080 C821     		movs	r1, #200
 124 0082 FA22     		movs	r2, #250
 125 0084 FFF7FEFF 		bl	motor_turn
 126              	.LVL19:
 165:main.c        ****                 reflectance_digital(&dig);
 127              		.loc 1 165 0
 128 0088 02A8     		add	r0, sp, #8
 129 008a FFF7FEFF 		bl	reflectance_digital
 130              	.LVL20:
 131              	.L4:
 163:main.c        ****                 motor_turn(1,200,250);
 132              		.loc 1 163 0
 133 008e BDF80830 		ldrh	r3, [sp, #8]
 134 0092 002B     		cmp	r3, #0
 135 0094 F3D0     		beq	.L5
 136 0096 07E0     		b	.L6
 137              	.L7:
 166:main.c        ****             }
 167:main.c        ****             while(dig.r3 == 0) {
 168:main.c        ****                 motor_turn(200,1,250);
 138              		.loc 1 168 0
 139 0098 C820     		movs	r0, #200
 140 009a 0121     		movs	r1, #1
 141 009c FA22     		movs	r2, #250
 142 009e FFF7FEFF 		bl	motor_turn
 143              	.LVL21:
 169:main.c        ****                 reflectance_digital(&dig);
 144              		.loc 1 169 0
 145 00a2 02A8     		add	r0, sp, #8
 146 00a4 FFF7FEFF 		bl	reflectance_digital
 147              	.LVL22:
 148              	.L6:
 167:main.c        ****                 motor_turn(200,1,250);
 149              		.loc 1 167 0
 150 00a8 BDF80E30 		ldrh	r3, [sp, #14]
 151 00ac 002B     		cmp	r3, #0
 152 00ae F3D0     		beq	.L7
 153 00b0 06E0     		b	.L8
 154              	.L10:
 170:main.c        ****             }
 171:main.c        ****             while(dig.r1 == 0 && dig.l1 == 0 && dig.r3 == 1 && dig.l3 == 1) {
 172:main.c        ****                 motor_forward(140,4); 
 155              		.loc 1 172 0
 156 00b2 8C20     		movs	r0, #140
 157 00b4 0421     		movs	r1, #4
 158 00b6 FFF7FEFF 		bl	motor_forward
 159              	.LVL23:
 173:main.c        ****                 reflectance_digital(&dig);
 160              		.loc 1 173 0
 161 00ba 02A8     		add	r0, sp, #8
 162 00bc FFF7FEFF 		bl	reflectance_digital
 163              	.LVL24:
 164              	.L8:
 171:main.c        ****                 motor_forward(140,4); 
 165              		.loc 1 171 0
ARM GAS  C:\Users\Nike\AppData\Local\Temp\ccYMNkLg.s 			page 7


 166 00c0 BDF80C30 		ldrh	r3, [sp, #12]
 167 00c4 9BB9     		cbnz	r3, .L9
 171:main.c        ****                 motor_forward(140,4); 
 168              		.loc 1 171 0 is_stmt 0 discriminator 1
 169 00c6 BDF80A30 		ldrh	r3, [sp, #10]
 170 00ca 83B9     		cbnz	r3, .L9
 171:main.c        ****                 motor_forward(140,4); 
 171              		.loc 1 171 0 discriminator 2
 172 00cc BDF80E30 		ldrh	r3, [sp, #14]
 173 00d0 012B     		cmp	r3, #1
 174 00d2 0CD1     		bne	.L9
 171:main.c        ****                 motor_forward(140,4); 
 175              		.loc 1 171 0 discriminator 3
 176 00d4 BDF80830 		ldrh	r3, [sp, #8]
 177 00d8 012B     		cmp	r3, #1
 178 00da EAD0     		beq	.L10
 179 00dc 07E0     		b	.L9
 180              	.L11:
 174:main.c        ****             }
 175:main.c        ****             while(dig.r1 == 0) {
 176:main.c        ****                 motor_turn(170,70,4);
 181              		.loc 1 176 0 is_stmt 1
 182 00de AA20     		movs	r0, #170
 183 00e0 4621     		movs	r1, #70
 184 00e2 0422     		movs	r2, #4
 185 00e4 FFF7FEFF 		bl	motor_turn
 186              	.LVL25:
 177:main.c        ****                 reflectance_digital(&dig);
 187              		.loc 1 177 0
 188 00e8 02A8     		add	r0, sp, #8
 189 00ea FFF7FEFF 		bl	reflectance_digital
 190              	.LVL26:
 191              	.L9:
 175:main.c        ****                 motor_turn(170,70,4);
 192              		.loc 1 175 0
 193 00ee BDF80C30 		ldrh	r3, [sp, #12]
 194 00f2 002B     		cmp	r3, #0
 195 00f4 F3D0     		beq	.L11
 196 00f6 07E0     		b	.L12
 197              	.L13:
 178:main.c        ****             }
 179:main.c        ****             while(dig.l1 == 0) {
 180:main.c        ****                 motor_turn(70,170,4);
 198              		.loc 1 180 0
 199 00f8 4620     		movs	r0, #70
 200 00fa AA21     		movs	r1, #170
 201 00fc 0422     		movs	r2, #4
 202 00fe FFF7FEFF 		bl	motor_turn
 203              	.LVL27:
 181:main.c        ****                 reflectance_digital(&dig);
 204              		.loc 1 181 0
 205 0102 02A8     		add	r0, sp, #8
 206 0104 FFF7FEFF 		bl	reflectance_digital
 207              	.LVL28:
 208              	.L12:
 179:main.c        ****                 motor_turn(70,170,4);
 209              		.loc 1 179 0
ARM GAS  C:\Users\Nike\AppData\Local\Temp\ccYMNkLg.s 			page 8


 210 0108 BDF80A30 		ldrh	r3, [sp, #10]
 211 010c 002B     		cmp	r3, #0
 212 010e F3D0     		beq	.L13
 213 0110 A5E7     		b	.L14
 214              	.L17:
 215 0112 00BF     		.align	2
 216              	.L16:
 217 0114 00000000 		.word	sensor_isr_handler
 218 0118 00000000 		.word	.LC0
 219 011c 08000000 		.word	.LC1
 220 0120 14000000 		.word	.LC2
 221 0124 20000000 		.word	.LC3
 222 0128 2C000000 		.word	.LC4
 223              		.cfi_endproc
 224              	.LFE63:
 225              		.size	main, .-main
 226              		.section	.text._write,"ax",%progbits
 227              		.align	2
 228              		.global	_write
 229              		.thumb
 230              		.thumb_func
 231              		.type	_write, %function
 232              	_write:
 233              	.LFB64:
 182:main.c        ****             }
 183:main.c        ****             
 184:main.c        **** //            while(dig.l1 == 0 && dig.l3 == 0 && dig.r1 == 0) {
 185:main.c        **** //                motor_turn(1,255,200);
 186:main.c        **** //                reflectance_digital(&dig);
 187:main.c        **** //            }
 188:main.c        **** //            while(dig.r1 == 0 && dig.r3 == 0 && dig.l1 == 0) {
 189:main.c        **** //                motor_turn(255,1,200);
 190:main.c        **** //                reflectance_digital(&dig);
 191:main.c        **** //            }
 192:main.c        **** //            while(dig.l1 == 0 && dig.l3 == 0) {
 193:main.c        **** //                motor_turn(1,200,200);
 194:main.c        **** //                reflectance_digital(&dig);
 195:main.c        **** //            }
 196:main.c        **** //            while(dig.r1 == 0 && dig.r3 == 0) {
 197:main.c        **** //                motor_turn(1,200,200);
 198:main.c        **** //                reflectance_digital(&dig);
 199:main.c        **** //            }
 200:main.c        **** //            while(dig.l1 == 0) {
 201:main.c        **** //                motor_turn(40,150,30);
 202:main.c        **** //                reflectance_digital(&dig);
 203:main.c        **** //                printf("%d %d %d %d \r\n", dig.l3,dig.l1,dig.r1,dig.r3);
 204:main.c        **** //            }
 205:main.c        **** //            while(dig.r1 == 0) {
 206:main.c        **** //                motor_turn(150,40,30);    
 207:main.c        **** //                reflectance_digital(&dig);
 208:main.c        **** //                printf("%d %d %d %d \r\n", dig.l3,dig.l1,dig.r1,dig.r3);
 209:main.c        **** //            }
 210:main.c        **** //            while(dig.l3 == 0 && dig.l1 == 1) {
 211:main.c        **** //                motor_turn(3,160,10);    
 212:main.c        **** //                reflectance_digital(&dig);
 213:main.c        **** //                printf("%d %d %d %d \r\n", dig.l3,dig.l1,dig.r1,dig.r3);
 214:main.c        **** //               while(dig.l3 == 1 && dig.l1 == 1){
ARM GAS  C:\Users\Nike\AppData\Local\Temp\ccYMNkLg.s 			page 9


 215:main.c        **** //                    motor_turn(160,4,1);
 216:main.c        **** //                    reflectance_digital(&dig);
 217:main.c        **** //                    printf("%d %d %d %d \r\n", dig.l3,dig.l1,dig.r1,dig.r3);
 218:main.c        **** //                }
 219:main.c        **** //            }
 220:main.c        **** //            while(dig.r3 == 0 && dig.r1 == 1) {
 221:main.c        **** //                motor_turn(160,3,10);    
 222:main.c        **** //                reflectance_digital(&dig);
 223:main.c        **** //                printf("%d %d %d %d \r\n", dig.l3,dig.l1,dig.r1,dig.r3);
 224:main.c        **** //              while(dig.r3 == 1 && dig.r1 == 1) {
 225:main.c        **** //                    motor_turn(4,160,1);
 226:main.c        **** //                    reflectance_digital(&dig);
 227:main.c        **** //                    printf("%d %d %d %d \r\n", dig.l3,dig.l1,dig.r1,dig.r3);
 228:main.c        **** //                }
 229:main.c        **** //            }
 230:main.c        **** //            while(dig.r1 == 0 && dig.l1 == 0) {
 231:main.c        **** //                motor_forward(150,1);
 232:main.c        **** //                reflectance_digital(&dig);
 233:main.c        **** //            }
 234:main.c        ****         
 235:main.c        ****         }
 236:main.c        **** 
 237:main.c        ****         /*
 238:main.c        ****         motor_start();
 239:main.c        ****         CyDelay(50);
 240:main.c        ****         motor_turn(140,50,4000);
 241:main.c        ****         CyDelay(50);
 242:main.c        ****         motor_stop();
 243:main.c        ****         CyDelay(500);
 244:main.c        ****         motor_turn(50,140,4000);
 245:main.c        ****         CyDelay(50);
 246:main.c        ****         motor_stop();
 247:main.c        ****         CyDelay(500);
 248:main.c        ****         
 249:main.c        ****         motor_forward(240,1000);
 250:main.c        ****         CyDelay(1000);
 251:main.c        ****         motor_backward(240,1000);   
 252:main.c        ****         CyDelay(1000);
 253:main.c        ****         motor_turn(50,140,2000);
 254:main.c        ****         motor_stop();
 255:main.c        ****         CyDelay(500);
 256:main.c        ****         */
 257:main.c        ****         k++;
 258:main.c        ****         //printf("%d", k);
 259:main.c        ****     }
 260:main.c        ****  }   
 261:main.c        **** //*/
 262:main.c        **** 
 263:main.c        **** 
 264:main.c        **** /*//ultra sonic sensor//
 265:main.c        **** int main()
 266:main.c        **** {
 267:main.c        ****     CyGlobalIntEnable; 
 268:main.c        ****     UART_1_Start();
 269:main.c        ****     Ultra_Start();                          // Ultra Sonic Start function
 270:main.c        ****     while(1) {
 271:main.c        ****         //If you want to print out the value  
ARM GAS  C:\Users\Nike\AppData\Local\Temp\ccYMNkLg.s 			page 10


 272:main.c        ****         printf("distance = %5.0f\r\n", Ultra_GetDistance());
 273:main.c        ****         CyDelay(1000);
 274:main.c        ****     }
 275:main.c        **** }   
 276:main.c        **** //*/
 277:main.c        **** 
 278:main.c        **** 
 279:main.c        **** /*//nunchuk//
 280:main.c        **** int main()
 281:main.c        **** {
 282:main.c        ****     CyGlobalIntEnable; 
 283:main.c        ****     UART_1_Start();
 284:main.c        ****   
 285:main.c        ****     nunchuk_start();
 286:main.c        ****     nunchuk_init();
 287:main.c        ****     
 288:main.c        ****     for(;;)
 289:main.c        ****     {    
 290:main.c        ****         nunchuk_read();
 291:main.c        ****     }
 292:main.c        **** }   
 293:main.c        **** //*/
 294:main.c        **** 
 295:main.c        **** 
 296:main.c        **** /*//IR receiver//
 297:main.c        **** int main()
 298:main.c        **** {
 299:main.c        ****     CyGlobalIntEnable; 
 300:main.c        ****     UART_1_Start();
 301:main.c        ****     
 302:main.c        ****     unsigned int IR_val; 
 303:main.c        ****     
 304:main.c        ****     for(;;)
 305:main.c        ****     {
 306:main.c        ****        IR_val = get_IR();
 307:main.c        ****        printf("%x\r\n\n",IR_val);
 308:main.c        ****     }    
 309:main.c        ****  }   
 310:main.c        **** //*/
 311:main.c        **** 
 312:main.c        **** 
 313:main.c        **** /*//Ambient light sensor//
 314:main.c        **** int main()
 315:main.c        **** {
 316:main.c        ****     CyGlobalIntEnable; 
 317:main.c        ****     UART_1_Start();
 318:main.c        ****     
 319:main.c        ****     I2C_Start();
 320:main.c        ****     
 321:main.c        ****     I2C_write(0x29,0x80,0x00);          // set to power down
 322:main.c        ****     I2C_write(0x29,0x80,0x03);          // set to power on
 323:main.c        ****     
 324:main.c        ****     for(;;)
 325:main.c        ****     {    
 326:main.c        ****         uint8 Data0Low,Data0High,Data1Low,Data1High;
 327:main.c        ****         Data0Low = I2C_read(0x29,CH0_L);
 328:main.c        ****         Data0High = I2C_read(0x29,CH0_H);
ARM GAS  C:\Users\Nike\AppData\Local\Temp\ccYMNkLg.s 			page 11


 329:main.c        ****         Data1Low = I2C_read(0x29,CH1_L);
 330:main.c        ****         Data1High = I2C_read(0x29,CH1_H);
 331:main.c        ****         
 332:main.c        ****         uint8 CH0, CH1;
 333:main.c        ****         CH0 = convert_raw(Data0Low,Data0High);      // combine Data0
 334:main.c        ****         CH1 = convert_raw(Data1Low,Data1High);      // combine Data1
 335:main.c        **** 
 336:main.c        ****         double Ch0 = CH0;
 337:main.c        ****         double Ch1 = CH1;
 338:main.c        ****         
 339:main.c        ****         double data = 0;
 340:main.c        ****         data = getLux(Ch0,Ch1);
 341:main.c        ****         
 342:main.c        ****         // If you want to print out data
 343:main.c        ****         //printf("%lf\r\n",data);    
 344:main.c        ****     }    
 345:main.c        ****  }   
 346:main.c        **** //*/
 347:main.c        **** 
 348:main.c        **** 
 349:main.c        **** /*//accelerometer//
 350:main.c        **** int main()
 351:main.c        **** {
 352:main.c        ****     CyGlobalIntEnable; 
 353:main.c        ****     UART_1_Start();
 354:main.c        ****   
 355:main.c        ****     I2C_Start();
 356:main.c        ****   
 357:main.c        ****     uint8 X_L_A, X_H_A, Y_L_A, Y_H_A, Z_L_A, Z_H_A;
 358:main.c        ****     int16 X_AXIS_A, Y_AXIS_A, Z_AXIS_A;
 359:main.c        ****     
 360:main.c        ****     I2C_write(ACCEL_MAG_ADDR, ACCEL_CTRL1_REG, 0x37);           // set accelerometer & magnetometer
 361:main.c        ****     I2C_write(ACCEL_MAG_ADDR, ACCEL_CTRL7_REG, 0x22);
 362:main.c        ****     
 363:main.c        ****     
 364:main.c        ****     for(;;)
 365:main.c        ****     {
 366:main.c        ****         //print out accelerometer output
 367:main.c        ****         X_L_A = I2C_read(ACCEL_MAG_ADDR, OUT_X_L_A);
 368:main.c        ****         X_H_A = I2C_read(ACCEL_MAG_ADDR, OUT_X_H_A);
 369:main.c        ****         X_AXIS_A = convert_raw(X_L_A, X_H_A);
 370:main.c        ****         
 371:main.c        ****         Y_L_A = I2C_read(ACCEL_MAG_ADDR, OUT_Y_L_A);
 372:main.c        ****         Y_H_A = I2C_read(ACCEL_MAG_ADDR, OUT_Y_H_A);
 373:main.c        ****         Y_AXIS_A = convert_raw(Y_L_A, Y_H_A);
 374:main.c        ****         
 375:main.c        ****         Z_L_A = I2C_read(ACCEL_MAG_ADDR, OUT_Z_L_A);
 376:main.c        ****         Z_H_A = I2C_read(ACCEL_MAG_ADDR, OUT_Z_H_A);
 377:main.c        ****         Z_AXIS_A = convert_raw(Z_L_A, Z_H_A);
 378:main.c        ****         
 379:main.c        ****         printf("ACCEL: %d %d %d %d %d %d \r\n", X_L_A, X_H_A, Y_L_A, Y_H_A, Z_L_A, Z_H_A);
 380:main.c        ****         value_convert_accel(X_AXIS_A, Y_AXIS_A, Z_AXIS_A);
 381:main.c        ****         printf("\n");
 382:main.c        ****         
 383:main.c        ****         CyDelay(50);
 384:main.c        ****     }
 385:main.c        **** }   
ARM GAS  C:\Users\Nike\AppData\Local\Temp\ccYMNkLg.s 			page 12


 386:main.c        **** //*/
 387:main.c        **** 
 388:main.c        **** 
 389:main.c        **** /*//reflectance//
 390:main.c        **** int main()
 391:main.c        **** {
 392:main.c        ****     struct sensors_ ref;
 393:main.c        ****     struct sensors_ dig;
 394:main.c        ****     CyGlobalIntEnable; 
 395:main.c        ****     UART_1_Start();
 396:main.c        ****   
 397:main.c        ****     sensor_isr_StartEx(sensor_isr_handler);
 398:main.c        ****     
 399:main.c        ****     reflectance_start();
 400:main.c        **** 
 401:main.c        ****     IR_led_Write(1);
 402:main.c        ****     for(;;)
 403:main.c        ****     {
 404:main.c        ****         reflectance_read(&ref);
 405:main.c        ****         printf("%d %d %d %d \r\n", ref.l3, ref.l1, ref.r1, ref.r3);       //print out each period o
 406:main.c        ****         reflectance_digital(&dig);      //print out 0 or 1 according to results of reflectance peri
 407:main.c        ****         printf("%d %d %d %d \r\n", dig.l3, dig.l1, dig.r1, dig.r3);        //print out 0 or 1 accor
 408:main.c        ****         
 409:main.c        ****         CyDelay(500);
 410:main.c        ****     }
 411:main.c        **** }   
 412:main.c        **** //*/
 413:main.c        **** 
 414:main.c        ****  /* //motor//
 415:main.c        **** int main()
 416:main.c        **** {
 417:main.c        ****     CyGlobalIntEnable; 
 418:main.c        ****     UART_1_Start();
 419:main.c        **** 
 420:main.c        ****     motor_start();              // motor start
 421:main.c        **** 
 422:main.c        ****     motor_forward(25,2000);     // moving forward
 423:main.c        ****     motor_turn(200,50,2000);     // turn
 424:main.c        ****     motor_turn(50,200,2000);     // turn
 425:main.c        ****     motor_backward(100,2000);    // movinb backward
 426:main.c        ****        
 427:main.c        ****     motor_stop();               // motor stop
 428:main.c        ****     
 429:main.c        ****     for(;;)
 430:main.c        ****     {
 431:main.c        **** 
 432:main.c        ****     }
 433:main.c        **** }
 434:main.c        **** //*/
 435:main.c        ****     
 436:main.c        **** 
 437:main.c        **** /*//gyroscope//
 438:main.c        **** int main()
 439:main.c        **** {
 440:main.c        ****     CyGlobalIntEnable; 
 441:main.c        ****     UART_1_Start();
 442:main.c        ****   
ARM GAS  C:\Users\Nike\AppData\Local\Temp\ccYMNkLg.s 			page 13


 443:main.c        ****     I2C_Start();
 444:main.c        ****   
 445:main.c        ****     uint8 X_L_G, X_H_G, Y_L_G, Y_H_G, Z_L_G, Z_H_G;
 446:main.c        ****     int16 X_AXIS_G, Y_AXIS_G, Z_AXIS_G;
 447:main.c        ****     
 448:main.c        ****     I2C_write(GYRO_ADDR, GYRO_CTRL1_REG, 0x0F);             // set gyroscope into active mode
 449:main.c        ****     I2C_write(GYRO_ADDR, GYRO_CTRL4_REG, 0x30);             // set full scale selection to 2000dps 
 450:main.c        ****     
 451:main.c        ****     for(;;)
 452:main.c        ****     {
 453:main.c        ****         //print out gyroscope output
 454:main.c        ****         X_L_G = I2C_read(GYRO_ADDR, OUT_X_AXIS_L);
 455:main.c        ****         X_H_G = I2C_read(GYRO_ADDR, OUT_X_AXIS_H);
 456:main.c        ****         X_AXIS_G = convert_raw(X_H_G, X_L_G);
 457:main.c        ****         
 458:main.c        ****         
 459:main.c        ****         Y_L_G = I2C_read(GYRO_ADDR, OUT_Y_AXIS_L);
 460:main.c        ****         Y_H_G = I2C_read(GYRO_ADDR, OUT_Y_AXIS_H);
 461:main.c        ****         Y_AXIS_G = convert_raw(Y_H_G, Y_L_G);
 462:main.c        ****         
 463:main.c        ****         
 464:main.c        ****         Z_L_G = I2C_read(GYRO_ADDR, OUT_Z_AXIS_L);
 465:main.c        ****         Z_H_G = I2C_read(GYRO_ADDR, OUT_Z_AXIS_H);
 466:main.c        ****         Z_AXIS_G = convert_raw(Z_H_G, Z_L_G);
 467:main.c        ****      
 468:main.c        ****         // If you want to print value
 469:main.c        ****         printf("%d %d %d \r\n", X_AXIS_G, Y_AXIS_G, Z_AXIS_G);
 470:main.c        ****         CyDelay(50);
 471:main.c        ****     }
 472:main.c        **** }   
 473:main.c        **** //*/
 474:main.c        **** 
 475:main.c        **** 
 476:main.c        **** /*//magnetometer//
 477:main.c        **** int main()
 478:main.c        **** {
 479:main.c        ****     CyGlobalIntEnable; 
 480:main.c        ****     UART_1_Start();
 481:main.c        ****   
 482:main.c        ****     I2C_Start();
 483:main.c        ****    
 484:main.c        ****     uint8 X_L_M, X_H_M, Y_L_M, Y_H_M, Z_L_M, Z_H_M;
 485:main.c        ****     int16 X_AXIS, Y_AXIS, Z_AXIS;
 486:main.c        ****     
 487:main.c        ****     I2C_write(GYRO_ADDR, GYRO_CTRL1_REG, 0x0F);             // set gyroscope into active mode
 488:main.c        ****     I2C_write(GYRO_ADDR, GYRO_CTRL4_REG, 0x30);             // set full scale selection to 2000dps
 489:main.c        ****     I2C_write(ACCEL_MAG_ADDR, ACCEL_CTRL1_REG, 0x37);           // set accelerometer & magnetometer
 490:main.c        ****     I2C_write(ACCEL_MAG_ADDR, ACCEL_CTRL7_REG, 0x22);
 491:main.c        ****     
 492:main.c        ****     
 493:main.c        ****     for(;;)
 494:main.c        ****     {
 495:main.c        ****         X_L_M = I2C_read(ACCEL_MAG_ADDR, OUT_X_L_M);
 496:main.c        ****         X_H_M = I2C_read(ACCEL_MAG_ADDR, OUT_X_H_M);
 497:main.c        ****         X_AXIS = convert_raw(X_L_M, X_H_M);
 498:main.c        ****         
 499:main.c        ****         Y_L_M = I2C_read(ACCEL_MAG_ADDR, OUT_Y_L_M);
ARM GAS  C:\Users\Nike\AppData\Local\Temp\ccYMNkLg.s 			page 14


 500:main.c        ****         Y_H_M = I2C_read(ACCEL_MAG_ADDR, OUT_Y_H_M);
 501:main.c        ****         Y_AXIS = convert_raw(Y_L_M, Y_H_M);
 502:main.c        ****         
 503:main.c        ****         Z_L_M = I2C_read(ACCEL_MAG_ADDR, OUT_Z_L_M);
 504:main.c        ****         Z_H_M = I2C_read(ACCEL_MAG_ADDR, OUT_Z_H_M);
 505:main.c        ****         Z_AXIS = convert_raw(Z_L_M, Z_H_M);
 506:main.c        ****         
 507:main.c        ****         heading(X_AXIS, Y_AXIS);
 508:main.c        ****         printf("MAGNET: %d %d %d %d %d %d \r\n", X_L_M, X_H_M, Y_L_M, Y_H_M, Z_L_M, Z_H_M);
 509:main.c        ****         printf("%d %d %d \r\n", X_AXIS,Y_AXIS, Z_AXIS);
 510:main.c        ****         CyDelay(50);      
 511:main.c        ****     }
 512:main.c        **** }   
 513:main.c        **** //*/
 514:main.c        **** 
 515:main.c        **** 
 516:main.c        **** #if 0
 517:main.c        **** int rread(void)
 518:main.c        **** {
 519:main.c        ****     SC0_SetDriveMode(PIN_DM_STRONG);
 520:main.c        ****     SC0_Write(1);
 521:main.c        ****     CyDelayUs(10);
 522:main.c        ****     SC0_SetDriveMode(PIN_DM_DIG_HIZ);
 523:main.c        ****     Timer_1_Start();
 524:main.c        ****     uint16_t start = Timer_1_ReadCounter();
 525:main.c        ****     uint16_t end = 0;
 526:main.c        ****     while(!(Timer_1_ReadStatusRegister() & Timer_1_STATUS_TC)) {
 527:main.c        ****         if(SC0_Read() == 0 && end == 0) {
 528:main.c        ****             end = Timer_1_ReadCounter();
 529:main.c        ****         }
 530:main.c        ****     }
 531:main.c        ****     Timer_1_Stop();
 532:main.c        ****     
 533:main.c        ****     return (start - end);
 534:main.c        **** }
 535:main.c        **** #endif
 536:main.c        **** 
 537:main.c        **** /* Don't remove the functions below */
 538:main.c        **** int _write(int file, char *ptr, int len)
 539:main.c        **** {
 234              		.loc 1 539 0
 235              		.cfi_startproc
 236              		@ args = 0, pretend = 0, frame = 0
 237              		@ frame_needed = 0, uses_anonymous_args = 0
 238              	.LVL29:
 239 0000 F8B5     		push	{r3, r4, r5, r6, r7, lr}
 240              		.cfi_def_cfa_offset 24
 241              		.cfi_offset 3, -24
 242              		.cfi_offset 4, -20
 243              		.cfi_offset 5, -16
 244              		.cfi_offset 6, -12
 245              		.cfi_offset 7, -8
 246              		.cfi_offset 14, -4
 247 0002 0C46     		mov	r4, r1
 248 0004 1746     		mov	r7, r2
 249              	.LVL30:
 540:main.c        ****     (void)file; /* Parameter is not used, suppress unused argument warning */
ARM GAS  C:\Users\Nike\AppData\Local\Temp\ccYMNkLg.s 			page 15


 541:main.c        **** 	int n;
 542:main.c        **** 	for(n = 0; n < len; n++) {
 250              		.loc 1 542 0
 251 0006 0025     		movs	r5, #0
 252 0008 0BE0     		b	.L19
 253              	.LVL31:
 254              	.L21:
 543:main.c        ****         if(*ptr == '\n') UART_1_PutChar('\r');
 255              		.loc 1 543 0
 256 000a 2378     		ldrb	r3, [r4]	@ zero_extendqisi2
 257 000c 0A2B     		cmp	r3, #10
 258 000e 02D1     		bne	.L20
 259              		.loc 1 543 0 is_stmt 0 discriminator 1
 260 0010 0D20     		movs	r0, #13
 261 0012 FFF7FEFF 		bl	UART_1_PutChar
 262              	.LVL32:
 263              	.L20:
 544:main.c        **** 		UART_1_PutChar(*ptr++);
 264              		.loc 1 544 0 is_stmt 1 discriminator 2
 265 0016 661C     		adds	r6, r4, #1
 266              	.LVL33:
 267 0018 2078     		ldrb	r0, [r4]	@ zero_extendqisi2
 268 001a FFF7FEFF 		bl	UART_1_PutChar
 269              	.LVL34:
 542:main.c        ****         if(*ptr == '\n') UART_1_PutChar('\r');
 270              		.loc 1 542 0 discriminator 2
 271 001e 0135     		adds	r5, r5, #1
 272              	.LVL35:
 273              		.loc 1 544 0 discriminator 2
 274 0020 3446     		mov	r4, r6
 275              	.LVL36:
 276              	.L19:
 542:main.c        ****         if(*ptr == '\n') UART_1_PutChar('\r');
 277              		.loc 1 542 0 discriminator 1
 278 0022 BD42     		cmp	r5, r7
 279 0024 F1DB     		blt	.L21
 545:main.c        **** 	}
 546:main.c        **** 	return len;
 547:main.c        **** }
 280              		.loc 1 547 0
 281 0026 3846     		mov	r0, r7
 282 0028 F8BD     		pop	{r3, r4, r5, r6, r7, pc}
 283              		.cfi_endproc
 284              	.LFE64:
 285              		.size	_write, .-_write
 286 002a 00BF     		.section	.text._read,"ax",%progbits
 287              		.align	2
 288              		.global	_read
 289              		.thumb
 290              		.thumb_func
 291              		.type	_read, %function
 292              	_read:
 293              	.LFB65:
 548:main.c        **** 
 549:main.c        **** int _read (int file, char *ptr, int count)
 550:main.c        **** {
 294              		.loc 1 550 0
ARM GAS  C:\Users\Nike\AppData\Local\Temp\ccYMNkLg.s 			page 16


 295              		.cfi_startproc
 296              		@ args = 0, pretend = 0, frame = 0
 297              		@ frame_needed = 0, uses_anonymous_args = 0
 298              	.LVL37:
 299 0000 F8B5     		push	{r3, r4, r5, r6, r7, lr}
 300              		.cfi_def_cfa_offset 24
 301              		.cfi_offset 3, -24
 302              		.cfi_offset 4, -20
 303              		.cfi_offset 5, -16
 304              		.cfi_offset 6, -12
 305              		.cfi_offset 7, -8
 306              		.cfi_offset 14, -4
 307 0002 0F46     		mov	r7, r1
 308 0004 1446     		mov	r4, r2
 309              	.LVL38:
 551:main.c        ****     int chs = 0;
 310              		.loc 1 551 0
 311 0006 0026     		movs	r6, #0
 552:main.c        ****     char ch;
 553:main.c        ****  
 554:main.c        ****     (void)file; /* Parameter is not used, suppress unused argument warning */
 555:main.c        ****     while(count > 0) {
 312              		.loc 1 555 0
 313 0008 12E0     		b	.L25
 314              	.LVL39:
 315              	.L28:
 556:main.c        ****         ch = UART_1_GetChar();
 316              		.loc 1 556 0
 317 000a FFF7FEFF 		bl	UART_1_GetChar
 318              	.LVL40:
 557:main.c        ****         if(ch != 0) {
 319              		.loc 1 557 0
 320 000e 0546     		mov	r5, r0
 321 0010 70B1     		cbz	r0, .L25
 558:main.c        ****             UART_1_PutChar(ch);
 322              		.loc 1 558 0
 323 0012 FFF7FEFF 		bl	UART_1_PutChar
 324              	.LVL41:
 559:main.c        ****             chs++;
 325              		.loc 1 559 0
 326 0016 0136     		adds	r6, r6, #1
 327              	.LVL42:
 560:main.c        ****             if(ch == '\r') {
 328              		.loc 1 560 0
 329 0018 0D2D     		cmp	r5, #13
 330 001a 03D1     		bne	.L26
 331              	.LVL43:
 561:main.c        ****                 ch = '\n';
 562:main.c        ****                 UART_1_PutChar(ch);
 332              		.loc 1 562 0
 333 001c 0A20     		movs	r0, #10
 334 001e FFF7FEFF 		bl	UART_1_PutChar
 335              	.LVL44:
 561:main.c        ****                 ch = '\n';
 336              		.loc 1 561 0
 337 0022 0A25     		movs	r5, #10
 338              	.LVL45:
ARM GAS  C:\Users\Nike\AppData\Local\Temp\ccYMNkLg.s 			page 17


 339              	.L26:
 563:main.c        ****             }
 564:main.c        ****             *ptr++ = ch;
 340              		.loc 1 564 0
 341 0024 7B1C     		adds	r3, r7, #1
 342              	.LVL46:
 343 0026 3D70     		strb	r5, [r7]
 565:main.c        ****             count--;
 344              		.loc 1 565 0
 345 0028 013C     		subs	r4, r4, #1
 346              	.LVL47:
 566:main.c        ****             if(ch == '\n') break;
 347              		.loc 1 566 0
 348 002a 0A2D     		cmp	r5, #10
 349 002c 02D0     		beq	.L27
 564:main.c        ****             count--;
 350              		.loc 1 564 0
 351 002e 1F46     		mov	r7, r3
 352              	.LVL48:
 353              	.L25:
 555:main.c        ****         ch = UART_1_GetChar();
 354              		.loc 1 555 0
 355 0030 002C     		cmp	r4, #0
 356 0032 EADC     		bgt	.L28
 357              	.LVL49:
 358              	.L27:
 567:main.c        ****         }
 568:main.c        ****     }
 569:main.c        ****     return chs;
 570:main.c        **** }
 359              		.loc 1 570 0
 360 0034 3046     		mov	r0, r6
 361 0036 F8BD     		pop	{r3, r4, r5, r6, r7, pc}
 362              		.cfi_endproc
 363              	.LFE65:
 364              		.size	_read, .-_read
 365              		.section	.rodata.str1.4,"aMS",%progbits,1
 366              		.align	2
 367              	.LC0:
 368 0000 0A426F6F 		.ascii	"\012Boot\000"
 368      7400
 369 0006 0000     		.space	2
 370              	.LC1:
 371 0008 5768696C 		.ascii	"While loop\000"
 371      65206C6F 
 371      6F7000
 372 0013 00       		.space	1
 373              	.LC2:
 374 0014 466F7220 		.ascii	"For loop\000"
 374      6C6F6F70 
 374      00
 375 001d 000000   		.space	3
 376              	.LC3:
 377 0020 4C657427 		.ascii	"Let's roll\000"
 377      7320726F 
 377      6C6C00
 378 002b 00       		.space	1
ARM GAS  C:\Users\Nike\AppData\Local\Temp\ccYMNkLg.s 			page 18


 379              	.LC4:
 380 002c 25642025 		.ascii	"%d %d %d %d \015\012\000"
 380      64202564 
 380      20256420 
 380      0D0A00
 381 003b 00       		.text
 382              	.Letext0:
 383              		.file 2 "c:\\program files (x86)\\psoc creator\\4.0\\psoc creator\\import\\gnu\\arm\\4.9.3\\arm-no
 384              		.file 3 "c:\\program files (x86)\\psoc creator\\4.0\\psoc creator\\import\\gnu\\arm\\4.9.3\\arm-no
 385              		.file 4 "Generated_Source\\PSoC5/cytypes.h"
 386              		.file 5 ".\\ZumoLibrary/Reflectance.h"
 387              		.file 6 "Generated_Source\\PSoC5/UART_1.h"
 388              		.file 7 "Generated_Source\\PSoC5/ADC_Battery.h"
 389              		.file 8 "Generated_Source\\PSoC5/sensor_isr.h"
 390              		.file 9 "Generated_Source\\PSoC5/IR_led.h"
 391              		.file 10 "Generated_Source\\PSoC5/CyLib.h"
 392              		.file 11 "Generated_Source\\PSoC5/BatteryLed.h"
 393              		.file 12 ".\\ZumoLibrary/Motor.h"
 394              		.file 13 "Generated_Source\\PSoC5/SW1.h"
 395              		.file 14 "Generated_Source\\PSoC5/core_cm3.h"
 396              		.file 15 "<built-in>"
 397              		.file 16 "c:\\program files (x86)\\psoc creator\\4.0\\psoc creator\\import\\gnu\\arm\\4.9.3\\arm-n